; Function Attrs: mustprogress uwtable
define internal void @"_ZNSt17_Function_handlerIFvN3sat7literalERK7svectorIS1_jEEZNS0_14cut_simplifier11clauses2aigEvE3$_0E9_M_invokeERKSt9_Any_dataOS1_S5_"(ptr nocapture noundef nonnull readonly align 8 dereferenceable(16) %__functor, ptr nocapture noundef nonnull readonly align 4 dereferenceable(4) %__args, ptr nocapture noundef nonnull readonly align 8 dereferenceable(8) %__args1) #3 align 2 {
entry:
  %call.val = load ptr, ptr %__functor, align 8
  %__args.val = load i32, ptr %__args, align 4
  %__args1.val = load ptr, ptr %__args1, align 8
  %cmp.i.i.i.i = icmp eq ptr %__args1.val, null
  br i1 %cmp.i.i.i.i, label %"_ZSt10__invoke_rIvRZN3sat14cut_simplifier11clauses2aigEvE3$_0JNS0_7literalERK7svectorIS4_jEEENSt9enable_ifIX16is_invocable_r_vIT_T0_DpT1_EESA_E4typeEOSB_DpOSC_.exit", label %if.end.i.i.i.i

if.end.i.i.i.i:                                   ; preds = %entry
  %arrayidx.i.i.i.i = getelementptr inbounds i8, ptr %__args1.val, i64 -4
  %0 = load i32, ptr %arrayidx.i.i.i.i, align 4
  br label %"_ZSt10__invoke_rIvRZN3sat14cut_simplifier11clauses2aigEvE3$_0JNS0_7literalERK7svectorIS4_jEEENSt9enable_ifIX16is_invocable_r_vIT_T0_DpT1_EESA_E4typeEOSB_DpOSC_.exit"

"_ZSt10__invoke_rIvRZN3sat14cut_simplifier11clauses2aigEvE3$_0JNS0_7literalERK7svectorIS4_jEEENSt9enable_ifIX16is_invocable_r_vIT_T0_DpT1_EESA_E4typeEOSB_DpOSC_.exit": ; preds = %entry, %if.end.i.i.i.i
  %retval.0.i.i.i.i = phi i32 [ %0, %if.end.i.i.i.i ], [ 0, %entry ]
  %m_aig_cuts.i.i.i = getelementptr inbounds i8, ptr %call.val, i64 72
  tail call void @_ZN3sat8aig_cuts8add_nodeENS_7literalENS_7bool_opEjPKS1_(ptr noundef nonnull align 8 dereferenceable(480) %m_aig_cuts.i.i.i, i32 %__args.val, i32 noundef 1, i32 noundef %retval.0.i.i.i.i, ptr noundef %__args1.val)
  %m_xands.i.i.i = getelementptr inbounds i8, ptr %call.val, i64 36
  %1 = load i32, ptr %m_xands.i.i.i, align 4
  %inc.i.i.i = add i32 %1, 1
  store i32 %inc.i.i.i, ptr %m_xands.i.i.i, align 4
  ret void
}